target datalayout = "e-m:e-p270:32:32-p271:32:32-p272:64:64-i64:64-i128:128-f80:128-n8:16:32:64-S128"
target triple = "x86_64-pc-linux-gnu"

%struct.SDL_Mouse = type { ptr, ptr, ptr, ptr, ptr, ptr, ptr, ptr, ptr, ptr, ptr, ptr, ptr, ptr, i8, float, float, ptr, float, float, float, float, float, float, float, float, double, double, i8, i8, i8, i8, i8, i8, i8, i8, i64, i8, float, i8, float, i8, i32, i32, i8, i8, i8, i8, i8, i8, i8, i8, i8, ptr, i32, ptr, ptr, ptr, ptr, i8, ptr }

@.str.29 = private unnamed_addr constant [12 x i8] c"mouse_input\00", align 1

; Function Attrs: nounwind uwtable
define internal void @SDL_MouseTouchEventsChanged(ptr noundef %0, ptr noundef %1, ptr noundef %2, ptr noundef %3) #0 {
  %5 = alloca ptr, align 8
  %6 = alloca ptr, align 8
  %7 = alloca ptr, align 8
  %8 = alloca ptr, align 8
  %9 = alloca ptr, align 8
  %10 = alloca i8, align 1
  store ptr %0, ptr %5, align 8
  store ptr %1, ptr %6, align 8
  store ptr %2, ptr %7, align 8
  store ptr %3, ptr %8, align 8
  call void @llvm.lifetime.start.p0(i64 8, ptr %9) #7
  %11 = load ptr, ptr %5, align 8
  store ptr %11, ptr %9, align 8
  call void @llvm.lifetime.start.p0(i64 1, ptr %10) #7
  store i8 0, ptr %10, align 1
  %12 = load ptr, ptr %8, align 8
  %13 = load i8, ptr %10, align 1, !range !3, !noundef !4
  %14 = trunc i8 %13 to i1
  %15 = call zeroext i1 @SDL_GetStringBoolean(ptr noundef %12, i1 noundef zeroext %14)
  %16 = load ptr, ptr %9, align 8
  %17 = getelementptr inbounds nuw %struct.SDL_Mouse, ptr %16, i32 0, i32 45
  %18 = zext i1 %15 to i8
  store i8 %18, ptr %17, align 1
  %19 = load ptr, ptr %9, align 8
  %20 = getelementptr inbounds nuw %struct.SDL_Mouse, ptr %19, i32 0, i32 45
  %21 = load i8, ptr %20, align 1, !range !3, !noundef !4
  %22 = trunc i8 %21 to i1
  br i1 %22, label %23, label %33

23:                                               ; preds = %4
  %24 = load ptr, ptr %9, align 8
  %25 = getelementptr inbounds nuw %struct.SDL_Mouse, ptr %24, i32 0, i32 49
  %26 = load i8, ptr %25, align 1, !range !3, !noundef !4
  %27 = trunc i8 %26 to i1
  br i1 %27, label %32, label %28

28:                                               ; preds = %23
  %29 = call i32 @SDL_AddTouch(i64 noundef -1, i32 noundef 0, ptr noundef @.str.29)
  %30 = load ptr, ptr %9, align 8
  %31 = getelementptr inbounds nuw %struct.SDL_Mouse, ptr %30, i32 0, i32 49
  store i8 1, ptr %31, align 1
  br label %32

32:                                               ; preds = %28, %23
  br label %42

33:                                               ; preds = %4
  %34 = load ptr, ptr %9, align 8
  %35 = getelementptr inbounds nuw %struct.SDL_Mouse, ptr %34, i32 0, i32 49
  %36 = load i8, ptr %35, align 1, !range !3, !noundef !4
  %37 = trunc i8 %36 to i1
  br i1 %37, label %38, label %41

38:                                               ; preds = %33
  call void @SDL_DelTouch(i64 noundef -1)
  %39 = load ptr, ptr %9, align 8
  %40 = getelementptr inbounds nuw %struct.SDL_Mouse, ptr %39, i32 0, i32 49
  store i8 0, ptr %40, align 1
  br label %41

41:                                               ; preds = %38, %33
  br label %42

42:                                               ; preds = %41, %32
  call void @llvm.lifetime.end.p0(i64 1, ptr %10) #7
  call void @llvm.lifetime.end.p0(i64 8, ptr %9) #7
  ret void
}