; Function Attrs: nounwind uwtable
define internal void @SDL_MouseTouchEventsChanged(ptr noundef captures(none) initializes((229, 230)) %0, ptr readnone captures(none) %1, ptr readnone captures(none) %2, ptr noundef %3) #0 {
  %5 = tail call zeroext i1 @SDL_GetStringBoolean(ptr noundef %3, i1 noundef zeroext false) #13
  %6 = getelementptr inbounds nuw i8, ptr %0, i64 229
  %7 = zext i1 %5 to i8
  store i8 %7, ptr %6, align 1
  %8 = getelementptr inbounds nuw i8, ptr %0, i64 233
  %9 = load i8, ptr %8, align 1, !range !3, !noundef !4
  %10 = trunc nuw i8 %9 to i1
  br i1 %5, label %11, label %14

11:                                               ; preds = %4
  br i1 %10, label %16, label %12

12:                                               ; preds = %11
  %13 = tail call i32 @SDL_AddTouch(i64 noundef -1, i32 noundef 0, ptr noundef nonnull @.str.29) #13
  br label %.sink.split

14:                                               ; preds = %4
  br i1 %10, label %15, label %16

15:                                               ; preds = %14
  tail call void @SDL_DelTouch(i64 noundef -1) #13
  br label %.sink.split

.sink.split:                                      ; preds = %12, %15
  %.sink = phi i8 [ 0, %15 ], [ 1, %12 ]
  store i8 %.sink, ptr %8, align 1
  br label %16

16:                                               ; preds = %.sink.split, %14, %11
  ret void
}